ARM GAS  /var/folders/d3/dt3vwhr97lb9k6xww43tf6h40000gr/T//cc93c3ZJ.s 			page 1


   1              		.cpu cortex-m7
   2              		.arch armv7e-m
   3              		.fpu fpv4-sp-d16
   4              		.eabi_attribute 27, 1
   5              		.eabi_attribute 28, 1
   6              		.eabi_attribute 20, 1
   7              		.eabi_attribute 21, 1
   8              		.eabi_attribute 23, 3
   9              		.eabi_attribute 24, 1
  10              		.eabi_attribute 25, 1
  11              		.eabi_attribute 26, 1
  12              		.eabi_attribute 30, 4
  13              		.eabi_attribute 34, 1
  14              		.eabi_attribute 18, 4
  15              		.file	"unit.cc"
  16              		.text
  17              	.Ltext0:
  18              		.cfi_sections	.debug_frame
  19              		.align	1
  20              		.global	unit_init
  21              		.syntax unified
  22              		.thumb
  23              		.thumb_func
  24              		.type	unit_init, %function
  25              	unit_init:
  26              	.LVL0:
  27              	.LFB875:
  28              		.file 1 "unit.cc"
  29              		.loc 1 49 68 view -0
  30              		.cfi_startproc
  31              		@ args = 0, pretend = 0, frame = 0
  32              		@ frame_needed = 0, uses_anonymous_args = 0
  33              		.loc 1 50 3 view .LVU1
  34              	.LBB119:
  35              	.LBI119:
  36              		.file 2 "gatereverb.h"
  37              		.loc 2 103 17 view .LVU2
  38              	.LBB120:
  39              		.loc 2 104 5 view .LVU3
  40              	.LBE120:
  41              	.LBE119:
  42              		.loc 1 49 68 is_stmt 0 view .LVU4
  43 0000 38B5     		push	{r3, r4, r5, lr}
  44              		.cfi_def_cfa_offset 16
  45              		.cfi_offset 3, -16
  46              		.cfi_offset 4, -12
  47              		.cfi_offset 5, -8
  48              		.cfi_offset 14, -4
  49              		.loc 1 49 68 view .LVU5
  50 0002 344B     		ldr	r3, .L20+8
  51              	.LBB130:
  52              	.LBB127:
  53              		.loc 2 104 5 view .LVU6
  54 0004 0446     		mov	r4, r0
  55              	.LBE127:
  56              	.LBE130:
  57              		.loc 1 49 68 view .LVU7
ARM GAS  /var/folders/d3/dt3vwhr97lb9k6xww43tf6h40000gr/T//cc93c3ZJ.s 			page 2


  58              	.LPIC0:
  59 0006 7B44     		add	r3, pc
  60              	.LBB131:
  61              	.LBB128:
  62              		.loc 2 104 5 view .LVU8
  63 0008 0028     		cmp	r0, #0
  64 000a 50D0     		beq	.L8
  65              		.loc 2 108 5 is_stmt 1 view .LVU9
  66              		.loc 2 108 44 is_stmt 0 view .LVU10
  67 000c 3249     		ldr	r1, .L20+12
  68              		.loc 2 108 15 view .LVU11
  69 000e 0268     		ldr	r2, [r0]	@ unaligned
  70              		.loc 2 108 44 view .LVU12
  71 0010 5B58     		ldr	r3, [r3, r1]
  72 0012 5B68     		ldr	r3, [r3, #4]	@ unaligned
  73              		.loc 2 108 5 view .LVU13
  74 0014 9A42     		cmp	r2, r3
  75 0016 4DD1     		bne	.L9
  76              		.loc 2 112 5 is_stmt 1 view .LVU14
  77              		.loc 2 112 10 is_stmt 0 view .LVU15
  78 0018 4368     		ldr	r3, [r0, #4]	@ unaligned
  79 001a 03F4FE02 		and	r2, r3, #8323072
  80              		.loc 2 112 5 view .LVU16
  81 001e B2F5003F 		cmp	r2, #131072
  82 0022 4AD1     		bne	.L11
  83              		.loc 2 112 9 view .LVU17
  84 0024 13F4FE4F 		tst	r3, #32512
  85 0028 47D1     		bne	.L11
  86              		.loc 2 116 5 is_stmt 1 view .LVU18
  87              		.loc 2 116 15 is_stmt 0 view .LVU19
  88 002a 8268     		ldr	r2, [r0, #8]	@ unaligned
  89              		.loc 2 116 5 view .LVU20
  90 002c 4BF68033 		movw	r3, #48000
  91 0030 9A42     		cmp	r2, r3
  92 0032 45D1     		bne	.L12
  93              		.loc 2 120 5 is_stmt 1 view .LVU21
  94 0034 837B     		ldrb	r3, [r0, #14]	@ zero_extendqisi2
  95 0036 022B     		cmp	r3, #2
  96 0038 45D1     		bne	.L14
  97              		.loc 2 120 35 is_stmt 0 view .LVU22
  98 003a C37B     		ldrb	r3, [r0, #15]	@ zero_extendqisi2
  99 003c 022B     		cmp	r3, #2
 100 003e 42D1     		bne	.L14
 101              		.loc 2 125 5 is_stmt 1 view .LVU23
 102              		.loc 2 125 22 is_stmt 0 view .LVU24
 103 0040 4369     		ldr	r3, [r0, #20]	@ unaligned
 104              		.loc 2 125 5 view .LVU25
 105 0042 13B9     		cbnz	r3, .L3
 106              	.LVL1:
 107              	.L4:
 108              		.loc 2 126 14 view .LVU26
 109 0044 6FF00F00 		mvn	r0, #15
 110              	.LVL2:
 111              	.L2:
 112              		.loc 2 126 14 view .LVU27
 113              	.LBE128:
 114              	.LBE131:
ARM GAS  /var/folders/d3/dt3vwhr97lb9k6xww43tf6h40000gr/T//cc93c3ZJ.s 			page 3


 115              		.loc 1 51 1 view .LVU28
 116 0048 38BD     		pop	{r3, r4, r5, pc}
 117              	.LVL3:
 118              	.L3:
 119              	.LBB132:
 120              	.LBB129:
 121              		.loc 2 127 5 is_stmt 1 view .LVU29
 122              		.loc 2 127 48 is_stmt 0 view .LVU30
 123 004a 2048     		ldr	r0, .L20
 124              	.LVL4:
 125              		.loc 2 127 48 view .LVU31
 126 004c 9847     		blx	r3
 127              	.LVL5:
 128              		.loc 2 128 5 is_stmt 1 view .LVU32
 129 004e 0028     		cmp	r0, #0
 130 0050 F8D0     		beq	.L4
 131              		.loc 2 131 5 view .LVU33
 132              	.LVL6:
 133              	.LBB121:
 134              	.LBI121:
 135              		.file 3 "/Users/omereliraz/Documents/logue-sdk/platform/nts-3_kaoss/common/utils/buffer_ops.h"
 136              		.loc 3 104 6 view .LVU34
 137              	.LBB122:
 138              		.loc 3 107 3 view .LVU35
 139              		.loc 3 107 3 is_stmt 0 view .LVU36
 140 0052 1F49     		ldr	r1, .L20+4
 141 0054 0346     		mov	r3, r0
 142              		.loc 3 109 5 view .LVU37
 143 0056 0022     		movs	r2, #0
 144 0058 0144     		add	r1, r1, r0
 145              	.LVL7:
 146              	.L6:
 147              		.loc 3 108 3 is_stmt 1 view .LVU38
 148              		.loc 3 108 14 view .LVU39
 149 005a 1033     		adds	r3, r3, #16
 150              	.LVL8:
 151              		.loc 3 108 14 is_stmt 0 view .LVU40
 152 005c 8B42     		cmp	r3, r1
 153 005e 08D0     		beq	.L5
 154              		.loc 3 109 5 is_stmt 1 view .LVU41
 155              	.LVL9:
 156              		.loc 3 109 5 is_stmt 0 view .LVU42
 157 0060 43F8102C 		str	r2, [r3, #-16]	@ float
 158              		.loc 3 109 5 is_stmt 1 view .LVU43
 159              	.LVL10:
 160              		.loc 3 109 5 is_stmt 0 view .LVU44
 161 0064 43F80C2C 		str	r2, [r3, #-12]	@ float
 162              		.loc 3 109 5 is_stmt 1 view .LVU45
 163              	.LVL11:
 164              		.loc 3 109 5 is_stmt 0 view .LVU46
 165 0068 43F8082C 		str	r2, [r3, #-8]	@ float
 166              		.loc 3 109 5 is_stmt 1 view .LVU47
 167              	.LVL12:
 168              		.loc 3 109 5 is_stmt 0 view .LVU48
 169 006c 43F8042C 		str	r2, [r3, #-4]	@ float
 170              		.loc 3 109 23 is_stmt 1 view .LVU49
 171              		.loc 3 108 3 is_stmt 0 view .LVU50
ARM GAS  /var/folders/d3/dt3vwhr97lb9k6xww43tf6h40000gr/T//cc93c3ZJ.s 			page 4


 172 0070 F3E7     		b	.L6
 173              	.LVL13:
 174              	.L5:
 175              		.loc 3 112 3 is_stmt 1 view .LVU51
 176              		.loc 3 112 14 view .LVU52
 177              		.loc 3 112 14 is_stmt 0 view .LVU53
 178              	.LBE122:
 179              	.LBE121:
 180              		.loc 2 133 5 is_stmt 1 view .LVU54
 181              		.loc 2 133 21 is_stmt 0 view .LVU55
 182 0072 1A4B     		ldr	r3, .L20+16
 183              		.loc 2 142 19 view .LVU56
 184 0074 04F12005 		add	r5, r4, #32
 185              		.loc 2 133 21 view .LVU57
 186              	.LPIC1:
 187 0078 7B44     		add	r3, pc
 188              		.loc 2 134 17 view .LVU58
 189 007a C3E90F00 		strd	r0, r0, [r3, #60]
 190              		.loc 2 135 5 is_stmt 1 view .LVU59
 191              	.LVL14:
 192              		.loc 2 136 5 view .LVU60
 193              		.loc 2 135 7 is_stmt 0 view .LVU61
 194 007e 00F53B20 		add	r0, r0, #765952
 195              		.loc 2 142 19 view .LVU62
 196 0082 0433     		adds	r3, r3, #4
 197              	.LVL15:
 198              		.loc 2 135 7 view .LVU63
 199 0084 00F50060 		add	r0, r0, #2048
 200              		.loc 2 136 17 view .LVU64
 201 0088 1864     		str	r0, [r3, #64]
 202              		.loc 2 142 5 is_stmt 1 view .LVU65
 203              	.LVL16:
 204              	.L7:
 205              		.loc 2 142 19 is_stmt 0 view .LVU66
 206 008a 2068     		ldr	r0, [r4]	@ unaligned
 207 008c 0834     		adds	r4, r4, #8
 208 008e 54F8041C 		ldr	r1, [r4, #-4]	@ unaligned
 209 0092 1A46     		mov	r2, r3
 210 0094 AC42     		cmp	r4, r5
 211 0096 03C2     		stmia	r2!, {r0, r1}
 212 0098 1346     		mov	r3, r2
 213 009a F6D1     		bne	.L7
 214              		.loc 2 145 5 is_stmt 1 view .LVU67
 215              	.LVL17:
 216              	.LBB123:
 217              	.LBI123:
 218              		.loc 2 87 10 view .LVU68
 219              	.LBB124:
 220              		.loc 2 88 7 view .LVU69
 221              		.loc 2 88 12 is_stmt 0 view .LVU70
 222 009c 104B     		ldr	r3, .L20+20
 223 009e 0022     		movs	r2, #0
 224              	.LBE124:
 225              	.LBE123:
 226              		.loc 2 147 12 view .LVU71
 227 00a0 0020     		movs	r0, #0
 228              	.LBB126:
ARM GAS  /var/folders/d3/dt3vwhr97lb9k6xww43tf6h40000gr/T//cc93c3ZJ.s 			page 5


 229              	.LBB125:
 230              		.loc 2 88 12 view .LVU72
 231              	.LPIC5:
 232 00a2 7B44     		add	r3, pc
 233 00a4 5A62     		str	r2, [r3, #36]	@ float
 234              		.loc 2 89 7 is_stmt 1 view .LVU73
 235              		.loc 2 89 16 is_stmt 0 view .LVU74
 236 00a6 9A62     		str	r2, [r3, #40]	@ float
 237              		.loc 2 90 7 is_stmt 1 view .LVU75
 238              		.loc 2 90 13 is_stmt 0 view .LVU76
 239 00a8 DA62     		str	r2, [r3, #44]	@ float
 240              		.loc 2 91 7 is_stmt 1 view .LVU77
 241              		.loc 2 91 14 is_stmt 0 view .LVU78
 242 00aa 1A63     		str	r2, [r3, #48]	@ float
 243              	.LVL18:
 244              		.loc 2 91 14 view .LVU79
 245              	.LBE125:
 246              	.LBE126:
 247              		.loc 2 147 5 is_stmt 1 view .LVU80
 248              		.loc 2 147 12 is_stmt 0 view .LVU81
 249 00ac CCE7     		b	.L2
 250              	.LVL19:
 251              	.L8:
 252              		.loc 2 105 14 view .LVU82
 253 00ae 6FF01F00 		mvn	r0, #31
 254              	.LVL20:
 255              		.loc 2 105 14 view .LVU83
 256 00b2 C9E7     		b	.L2
 257              	.LVL21:
 258              	.L9:
 259              		.loc 2 109 14 view .LVU84
 260 00b4 4FF0FF30 		mov	r0, #-1
 261              	.LVL22:
 262              		.loc 2 109 14 view .LVU85
 263 00b8 C6E7     		b	.L2
 264              	.LVL23:
 265              	.L11:
 266              		.loc 2 113 14 view .LVU86
 267 00ba 6FF00100 		mvn	r0, #1
 268              	.LVL24:
 269              		.loc 2 113 14 view .LVU87
 270 00be C3E7     		b	.L2
 271              	.LVL25:
 272              	.L12:
 273              		.loc 2 117 14 view .LVU88
 274 00c0 6FF00300 		mvn	r0, #3
 275              	.LVL26:
 276              		.loc 2 117 14 view .LVU89
 277 00c4 C0E7     		b	.L2
 278              	.LVL27:
 279              	.L14:
 280              		.loc 2 121 14 view .LVU90
 281 00c6 6FF00700 		mvn	r0, #7
 282              	.LVL28:
 283              		.loc 2 121 14 view .LVU91
 284 00ca BDE7     		b	.L2
 285              	.L21:
ARM GAS  /var/folders/d3/dt3vwhr97lb9k6xww43tf6h40000gr/T//cc93c3ZJ.s 			page 6


 286              		.align	2
 287              	.L20:
 288 00cc 00A60E00 		.word	960000
 289 00d0 10701700 		.word	1536016
 290 00d4 CA000000 		.word	_GLOBAL_OFFSET_TABLE_-(.LPIC0+4)
 291 00d8 00000000 		.word	unit_header(GOT)
 292 00dc 60000000 		.word	.LANCHOR0-(.LPIC1+4)
 293 00e0 3A000000 		.word	.LANCHOR0-(.LPIC5+4)
 294              	.LBE129:
 295              	.LBE132:
 296              		.cfi_endproc
 297              	.LFE875:
 298              		.size	unit_init, .-unit_init
 299              		.align	1
 300              		.global	unit_teardown
 301              		.syntax unified
 302              		.thumb
 303              		.thumb_func
 304              		.type	unit_teardown, %function
 305              	unit_teardown:
 306              	.LFB876:
 307              		.loc 1 53 38 is_stmt 1 view -0
 308              		.cfi_startproc
 309              		@ args = 0, pretend = 0, frame = 0
 310              		@ frame_needed = 0, uses_anonymous_args = 0
 311              		@ link register save eliminated.
 312              		.loc 1 54 3 view .LVU93
 313              	.LVL29:
 314              	.LBB133:
 315              	.LBI133:
 316              		.loc 2 150 15 view .LVU94
 317              	.LBB134:
 318              		.loc 2 153 5 view .LVU95
 319              		.loc 2 153 21 is_stmt 0 view .LVU96
 320 00e4 034B     		ldr	r3, .L23
 321 00e6 0022     		movs	r2, #0
 322              	.LPIC9:
 323 00e8 7B44     		add	r3, pc
 324              		.loc 2 154 17 view .LVU97
 325 00ea C3E90F22 		strd	r2, r2, [r3, #60]
 326              		.loc 2 155 5 is_stmt 1 view .LVU98
 327              		.loc 2 156 24 is_stmt 0 view .LVU99
 328 00ee C3E91122 		strd	r2, r2, [r3, #68]
 329              	.LVL30:
 330              		.loc 2 156 24 view .LVU100
 331              	.LBE134:
 332              	.LBE133:
 333              		.loc 1 55 1 view .LVU101
 334 00f2 7047     		bx	lr
 335              	.L24:
 336              		.align	2
 337              	.L23:
 338 00f4 08000000 		.word	.LANCHOR0-(.LPIC9+4)
 339              		.cfi_endproc
 340              	.LFE876:
 341              		.size	unit_teardown, .-unit_teardown
 342              		.align	1
ARM GAS  /var/folders/d3/dt3vwhr97lb9k6xww43tf6h40000gr/T//cc93c3ZJ.s 			page 7


 343              		.global	unit_reset
 344              		.syntax unified
 345              		.thumb
 346              		.thumb_func
 347              		.type	unit_reset, %function
 348              	unit_reset:
 349              	.LFB877:
 350              		.loc 1 57 35 is_stmt 1 view -0
 351              		.cfi_startproc
 352              		@ args = 0, pretend = 0, frame = 0
 353              		@ frame_needed = 0, uses_anonymous_args = 0
 354              		@ link register save eliminated.
 355              		.loc 1 58 3 view .LVU103
 356              	.LVL31:
 357              		.loc 1 59 1 is_stmt 0 view .LVU104
 358 00f8 7047     		bx	lr
 359              		.cfi_endproc
 360              	.LFE877:
 361              		.size	unit_reset, .-unit_reset
 362              		.align	1
 363              		.global	unit_resume
 364              		.syntax unified
 365              		.thumb
 366              		.thumb_func
 367              		.type	unit_resume, %function
 368              	unit_resume:
 369              	.LFB878:
 370              		.loc 1 61 36 is_stmt 1 view -0
 371              		.cfi_startproc
 372              		@ args = 0, pretend = 0, frame = 0
 373              		@ frame_needed = 0, uses_anonymous_args = 0
 374              		@ link register save eliminated.
 375              		.loc 1 62 3 view .LVU106
 376              	.LVL32:
 377              	.LBB135:
 378              	.LBI135:
 379              		.loc 2 163 15 view .LVU107
 380              	.LBB136:
 381              		.loc 2 169 5 view .LVU108
 382              		.loc 2 169 19 is_stmt 0 view .LVU109
 383 00fa 034B     		ldr	r3, .L27
 384 00fc 0122     		movs	r2, #1
 385              	.LPIC13:
 386 00fe 7B44     		add	r3, pc
 387 0100 83F83820 		strb	r2, [r3, #56]
 388              	.LVL33:
 389              		.loc 2 169 19 view .LVU110
 390              	.LBE136:
 391              	.LBE135:
 392              		.loc 1 63 1 view .LVU111
 393 0104 7047     		bx	lr
 394              	.L28:
 395 0106 00BF     		.align	2
 396              	.L27:
 397 0108 06000000 		.word	.LANCHOR0-(.LPIC13+4)
 398              		.cfi_endproc
 399              	.LFE878:
ARM GAS  /var/folders/d3/dt3vwhr97lb9k6xww43tf6h40000gr/T//cc93c3ZJ.s 			page 8


 400              		.size	unit_resume, .-unit_resume
 401              		.align	1
 402              		.global	unit_suspend
 403              		.syntax unified
 404              		.thumb
 405              		.thumb_func
 406              		.type	unit_suspend, %function
 407              	unit_suspend:
 408              	.LFB912:
 409              		.cfi_startproc
 410              		@ args = 0, pretend = 0, frame = 0
 411              		@ frame_needed = 0, uses_anonymous_args = 0
 412              		@ link register save eliminated.
 413 010c 7047     		bx	lr
 414              		.cfi_endproc
 415              	.LFE912:
 416              		.size	unit_suspend, .-unit_suspend
 417              		.align	1
 418              		.global	unit_render
 419              		.syntax unified
 420              		.thumb
 421              		.thumb_func
 422              		.type	unit_render, %function
 423              	unit_render:
 424              	.LVL34:
 425              	.LFB880:
 426              		.loc 1 69 82 is_stmt 1 view -0
 427              		.cfi_startproc
 428              		@ args = 0, pretend = 0, frame = 0
 429              		@ frame_needed = 0, uses_anonymous_args = 0
 430              		.loc 1 70 3 view .LVU113
 431              	.LBB137:
 432              	.LBI137:
 433              		.loc 2 181 20 view .LVU114
 434              	.LBB138:
 435              		.loc 2 182 5 view .LVU115
 436              		.loc 2 183 5 view .LVU116
 437              		.loc 2 184 5 view .LVU117
 438              		.loc 2 187 5 view .LVU118
 439              		.loc 2 187 14 is_stmt 0 view .LVU119
 440 010e 314B     		ldr	r3, .L38+4
 441              		.loc 2 194 17 view .LVU120
 442 0110 B7EE006A 		vmov.f32	s12, #1.0e+0
 443              	.LBB139:
 444              	.LBB140:
 445              		.loc 2 203 13 view .LVU121
 446 0114 DFED2E6A 		vldr.32	s13, .L38
 447              	.LBE140:
 448              	.LBE139:
 449              		.loc 2 187 14 view .LVU122
 450              	.LPIC14:
 451 0118 7B44     		add	r3, pc
 452              		.loc 2 190 18 view .LVU123
 453 011a D3ED097A 		vldr.32	s15, [r3, #36]
 454              	.LBB147:
 455              	.LBB141:
 456              		.loc 2 204 57 view .LVU124
ARM GAS  /var/folders/d3/dt3vwhr97lb9k6xww43tf6h40000gr/T//cc93c3ZJ.s 			page 9


 457 011e 93ED0B7A 		vldr.32	s14, [r3, #44]
 458              		.loc 2 203 13 view .LVU125
 459 0122 27EEA63A 		vmul.f32	s6, s15, s13
 460              	.LBE141:
 461              	.LBE147:
 462              		.loc 2 190 18 view .LVU126
 463 0126 D3ED0C5A 		vldr.32	s11, [r3, #48]
 464              	.LBB148:
 465              	.LBB142:
 466              		.loc 2 204 57 view .LVU127
 467 012a 67EE877A 		vmul.f32	s15, s15, s14
 468              	.LBE142:
 469              	.LBE148:
 470              		.loc 2 190 18 view .LVU128
 471 012e D3ED0A3A 		vldr.32	s7, [r3, #40]
 472              		.loc 2 194 17 view .LVU129
 473 0132 36EE656A 		vsub.f32	s12, s12, s11
 474              	.LBB149:
 475              	.LBB143:
 476              		.loc 2 204 13 view .LVU130
 477 0136 67EEA66A 		vmul.f32	s13, s15, s13
 478              	.LBE143:
 479              	.LBE149:
 480              	.LBE138:
 481              	.LBE137:
 482              		.loc 1 69 82 view .LVU131
 483 013a F0B5     		push	{r4, r5, r6, r7, lr}
 484              		.cfi_def_cfa_offset 20
 485              		.cfi_offset 4, -20
 486              		.cfi_offset 5, -16
 487              		.cfi_offset 6, -12
 488              		.cfi_offset 7, -8
 489              		.cfi_offset 14, -4
 490              	.LBB152:
 491              	.LBB151:
 492              		.loc 2 188 14 view .LVU132
 493 013c D3E91445 		ldrd	r4, r5, [r3, #80]
 494              	.LVL35:
 495              		.loc 2 190 5 is_stmt 1 view .LVU133
 496              		.loc 2 191 5 view .LVU134
 497              		.loc 2 192 5 view .LVU135
 498              		.loc 2 193 5 view .LVU136
 499              		.loc 2 194 5 view .LVU137
 500              		.loc 2 195 5 view .LVU138
 501              		.loc 2 198 5 view .LVU139
 502              	.LBB150:
 503              	.LBB144:
 504              		.loc 2 214 29 is_stmt 0 view .LVU140
 505 0140 D3E910EC 		ldrd	lr, ip, [r3, #64]
 506              	.LBE144:
 507              		.loc 2 198 18 view .LVU141
 508 0144 0023     		movs	r3, #0
 509              	.LVL36:
 510              	.L34:
 511              		.loc 2 198 41 is_stmt 1 view .LVU142
 512 0146 9A42     		cmp	r2, r3
 513 0148 3DD0     		beq	.L31
ARM GAS  /var/folders/d3/dt3vwhr97lb9k6xww43tf6h40000gr/T//cc93c3ZJ.s 			page 10


 514              	.LBB145:
 515              		.loc 2 200 7 view .LVU143
 516              		.loc 2 206 27 is_stmt 0 view .LVU144
 517 014a 07EE904A 		vmov	s15, r4	@ int
 518              		.loc 2 200 13 view .LVU145
 519 014e 90ED004A 		vldr.32	s8, [r0]
 520              	.LVL37:
 521              		.loc 2 201 7 is_stmt 1 view .LVU146
 522              		.loc 2 201 13 is_stmt 0 view .LVU147
 523 0152 D0ED014A 		vldr.32	s9, [r0, #4]
 524              	.LVL38:
 525              		.loc 2 203 7 is_stmt 1 view .LVU148
 526              		.loc 2 204 7 view .LVU149
 527              		.loc 2 206 7 view .LVU150
 528              		.loc 2 206 7 is_stmt 0 view .LVU151
 529              	.LBE145:
 530              		.loc 2 198 5 view .LVU152
 531 0156 0133     		adds	r3, r3, #1
 532              	.LVL39:
 533              	.LBB146:
 534              		.loc 2 206 27 view .LVU153
 535 0158 F8EE677A 		vcvt.f32.u32	s15, s15
 536 015c 0831     		adds	r1, r1, #8
 537 015e 0830     		adds	r0, r0, #8
 538              		.loc 2 206 7 view .LVU154
 539 0160 B4EEE73A 		vcmpe.f32	s6, s15
 540              		.loc 2 209 27 view .LVU155
 541 0164 07EE905A 		vmov	s15, r5	@ int
 542 0168 F8EE677A 		vcvt.f32.u32	s15, s15
 543              		.loc 2 206 7 view .LVU156
 544 016c F1EE10FA 		vmrs	APSR_nzcv, FPSCR
 545              		.loc 2 209 7 view .LVU157
 546 0170 F4EEE76A 		vcmpe.f32	s13, s15
 547              		.loc 2 206 24 view .LVU158
 548 0174 8CBF     		ite	hi
 549 0176 0134     		addhi	r4, r4, #1
 550              	.LVL40:
 551              		.loc 2 207 23 view .LVU159
 552 0178 0024     		movls	r4, #0
 553              	.LVL41:
 554              		.loc 2 209 7 is_stmt 1 view .LVU160
 555              		.loc 2 213 54 is_stmt 0 view .LVU161
 556 017a 0EEB8407 		add	r7, lr, r4, lsl #2
 557              		.loc 2 209 7 view .LVU162
 558 017e F1EE10FA 		vmrs	APSR_nzcv, FPSCR
 559              		.loc 2 213 13 view .LVU163
 560 0182 97ED007A 		vldr.32	s14, [r7]
 561              		.loc 2 209 24 view .LVU164
 562 0186 8CBF     		ite	hi
 563 0188 0135     		addhi	r5, r5, #1
 564              	.LVL42:
 565              		.loc 2 210 23 view .LVU165
 566 018a 0025     		movls	r5, #0
 567              	.LVL43:
 568              		.loc 2 213 7 is_stmt 1 view .LVU166
 569              		.loc 2 214 7 view .LVU167
 570              		.loc 2 216 44 is_stmt 0 view .LVU168
ARM GAS  /var/folders/d3/dt3vwhr97lb9k6xww43tf6h40000gr/T//cc93c3ZJ.s 			page 11


 571 018c 34EE075A 		vadd.f32	s10, s8, s14
 572              		.loc 2 214 54 view .LVU169
 573 0190 0CEB8506 		add	r6, ip, r5, lsl #2
 574              		.loc 2 219 58 view .LVU170
 575 0194 25EE877A 		vmul.f32	s14, s11, s14
 576              	.LVL44:
 577              		.loc 2 216 61 view .LVU171
 578 0198 25EE235A 		vmul.f32	s10, s10, s7
 579              		.loc 2 214 13 view .LVU172
 580 019c D6ED007A 		vldr.32	s15, [r6]
 581              	.LVL45:
 582              		.loc 2 216 7 is_stmt 1 view .LVU173
 583              		.loc 2 219 13 is_stmt 0 view .LVU174
 584 01a0 A6EE047A 		vfma.f32	s14, s12, s8
 585              		.loc 2 216 34 view .LVU175
 586 01a4 87ED005A 		vstr.32	s10, [r7]
 587              	.LVL46:
 588              		.loc 2 217 7 is_stmt 1 view .LVU176
 589              		.loc 2 217 44 is_stmt 0 view .LVU177
 590 01a8 34EEA75A 		vadd.f32	s10, s9, s15
 591              		.loc 2 220 58 view .LVU178
 592 01ac 65EEA77A 		vmul.f32	s15, s11, s15
 593              	.LVL47:
 594              		.loc 2 217 61 view .LVU179
 595 01b0 25EE235A 		vmul.f32	s10, s10, s7
 596              		.loc 2 220 13 view .LVU180
 597 01b4 E6EE247A 		vfma.f32	s15, s12, s9
 598              		.loc 2 217 34 view .LVU181
 599 01b8 86ED005A 		vstr.32	s10, [r6]
 600              		.loc 2 219 7 is_stmt 1 view .LVU182
 601              	.LVL48:
 602              		.loc 2 220 7 view .LVU183
 603              		.loc 2 222 7 view .LVU184
 604              		.loc 2 222 27 is_stmt 0 view .LVU185
 605 01bc 01ED027A 		vstr.32	s14, [r1, #-8]
 606              		.loc 2 223 7 is_stmt 1 view .LVU186
 607              		.loc 2 223 31 is_stmt 0 view .LVU187
 608 01c0 41ED017A 		vstr.32	s15, [r1, #-4]
 609              	.LBE146:
 610              		.loc 2 198 5 is_stmt 1 view .LVU188
 611              	.LVL49:
 612              		.loc 2 198 5 is_stmt 0 view .LVU189
 613 01c4 BFE7     		b	.L34
 614              	.LVL50:
 615              	.L31:
 616              		.loc 2 198 5 view .LVU190
 617              	.LBE150:
 618              		.loc 2 226 5 is_stmt 1 view .LVU191
 619              		.loc 2 226 16 is_stmt 0 view .LVU192
 620 01c6 044B     		ldr	r3, .L38+8
 621              	.LVL51:
 622              		.loc 2 226 16 view .LVU193
 623              	.LPIC22:
 624 01c8 7B44     		add	r3, pc
 625              		.loc 2 227 16 view .LVU194
 626 01ca C3E91445 		strd	r4, r5, [r3, #80]
 627              	.LVL52:
ARM GAS  /var/folders/d3/dt3vwhr97lb9k6xww43tf6h40000gr/T//cc93c3ZJ.s 			page 12


 628              		.loc 2 227 16 view .LVU195
 629              	.LBE151:
 630              	.LBE152:
 631              		.loc 1 71 1 view .LVU196
 632 01ce F0BD     		pop	{r4, r5, r6, r7, pc}
 633              	.L39:
 634              		.align	2
 635              	.L38:
 636 01d0 00803B48 		.word	1211858944
 637 01d4 B8000000 		.word	.LANCHOR0-(.LPIC14+4)
 638 01d8 0C000000 		.word	.LANCHOR0-(.LPIC22+4)
 639              		.cfi_endproc
 640              	.LFE880:
 641              		.size	unit_render, .-unit_render
 642              		.align	1
 643              		.global	unit_set_param_value
 644              		.syntax unified
 645              		.thumb
 646              		.thumb_func
 647              		.type	unit_set_param_value, %function
 648              	unit_set_param_value:
 649              	.LVL53:
 650              	.LFB881:
 651              		.loc 1 73 70 is_stmt 1 view -0
 652              		.cfi_startproc
 653              		@ args = 0, pretend = 0, frame = 0
 654              		@ frame_needed = 0, uses_anonymous_args = 0
 655              		@ link register save eliminated.
 656              		.loc 1 74 3 view .LVU198
 657              	.LBB165:
 658              	.LBI165:
 659              		.loc 2 230 15 view .LVU199
 660              	.LBB166:
 661              		.loc 2 231 5 view .LVU200
 662 01dc 0328     		cmp	r0, #3
 663 01de 3ED8     		bhi	.L40
 664 01e0 DFE800F0 		tbb	[pc, r0]
 665              	.L43:
 666 01e4 02       		.byte	(.L46-.L43)/2
 667 01e5 11       		.byte	(.L45-.L43)/2
 668 01e6 20       		.byte	(.L44-.L43)/2
 669 01e7 2F       		.byte	(.L42-.L43)/2
 670              		.p2align 1
 671              	.L46:
 672              	.LVL54:
 673              	.LBB167:
 674              	.LBI167:
 675              		.loc 2 230 15 view .LVU201
 676              	.LBB168:
 677              		.loc 2 232 5 view .LVU202
 678              		.loc 2 233 7 view .LVU203
 679              		.loc 2 233 7 is_stmt 0 view .LVU204
 680              	.LBE168:
 681              	.LBE167:
 682              	.LBE166:
 683              	.LBE165:
 684              		.file 4 "/Users/omereliraz/Documents/logue-sdk/platform/nts-3_kaoss/common/utils/int_math.h"
ARM GAS  /var/folders/d3/dt3vwhr97lb9k6xww43tf6h40000gr/T//cc93c3ZJ.s 			page 13


 685              		.loc 4 78 3 is_stmt 1 view .LVU205
 686              	.LBB175:
 687              	.LBB171:
 688              	.LBB170:
 689              	.LBB169:
 690              		.loc 2 234 7 view .LVU206
 691              		.loc 2 234 22 is_stmt 0 view .LVU207
 692 01e8 81F30A03 		usat	r3, #10, r1
 693              	.LVL55:
 694              		.loc 2 234 22 view .LVU208
 695 01ec 9FED1C7A 		vldr.32	s14, .L47
 696 01f0 07EE903A 		vmov	s15, r3	@ int
 697              		.loc 2 234 20 view .LVU209
 698 01f4 1B4B     		ldr	r3, .L47+4
 699              	.LVL56:
 700              		.loc 2 234 22 view .LVU210
 701 01f6 F8EEE77A 		vcvt.f32.s32	s15, s15
 702              	.LVL57:
 703              		.loc 2 234 20 view .LVU211
 704              	.LPIC24:
 705 01fa 7B44     		add	r3, pc
 706              		.loc 2 234 22 view .LVU212
 707 01fc 67EE877A 		vmul.f32	s15, s15, s14
 708              		.loc 2 234 20 view .LVU213
 709 0200 C3ED097A 		vstr.32	s15, [r3, #36]
 710              		.loc 2 235 7 is_stmt 1 view .LVU214
 711              		.loc 2 251 3 is_stmt 0 view .LVU215
 712 0204 7047     		bx	lr
 713              	.LVL58:
 714              	.L45:
 715              		.loc 2 251 3 view .LVU216
 716              	.LBE169:
 717              	.LBE170:
 718              		.loc 2 236 5 is_stmt 1 view .LVU217
 719              		.loc 2 237 7 view .LVU218
 720              		.loc 2 237 7 is_stmt 0 view .LVU219
 721              	.LBE171:
 722              	.LBE175:
 723              		.loc 4 78 3 is_stmt 1 view .LVU220
 724              	.LBB176:
 725              	.LBB172:
 726              		.loc 2 238 7 view .LVU221
 727              		.loc 2 238 26 is_stmt 0 view .LVU222
 728 0206 81F30A03 		usat	r3, #10, r1
 729              	.LVL59:
 730              		.loc 2 238 26 view .LVU223
 731 020a 9FED157A 		vldr.32	s14, .L47
 732 020e 07EE903A 		vmov	s15, r3	@ int
 733              		.loc 2 238 24 view .LVU224
 734 0212 154B     		ldr	r3, .L47+8
 735              	.LVL60:
 736              		.loc 2 238 26 view .LVU225
 737 0214 F8EEE77A 		vcvt.f32.s32	s15, s15
 738              	.LVL61:
 739              		.loc 2 238 24 view .LVU226
 740              	.LPIC25:
 741 0218 7B44     		add	r3, pc
ARM GAS  /var/folders/d3/dt3vwhr97lb9k6xww43tf6h40000gr/T//cc93c3ZJ.s 			page 14


 742              		.loc 2 238 26 view .LVU227
 743 021a 67EE877A 		vmul.f32	s15, s15, s14
 744              		.loc 2 238 24 view .LVU228
 745 021e C3ED0A7A 		vstr.32	s15, [r3, #40]
 746              		.loc 2 239 7 is_stmt 1 view .LVU229
 747 0222 7047     		bx	lr
 748              	.LVL62:
 749              	.L44:
 750              		.loc 2 240 5 view .LVU230
 751              		.loc 2 241 7 view .LVU231
 752              		.loc 2 241 7 is_stmt 0 view .LVU232
 753              	.LBE172:
 754              	.LBE176:
 755              		.loc 4 78 3 is_stmt 1 view .LVU233
 756              	.LBB177:
 757              	.LBB173:
 758              		.loc 2 242 7 view .LVU234
 759              		.loc 2 242 23 is_stmt 0 view .LVU235
 760 0224 81F30A03 		usat	r3, #10, r1
 761              	.LVL63:
 762              		.loc 2 242 23 view .LVU236
 763 0228 9FED0D7A 		vldr.32	s14, .L47
 764 022c 07EE903A 		vmov	s15, r3	@ int
 765              		.loc 2 242 21 view .LVU237
 766 0230 0E4B     		ldr	r3, .L47+12
 767              	.LVL64:
 768              		.loc 2 242 23 view .LVU238
 769 0232 F8EEE77A 		vcvt.f32.s32	s15, s15
 770              	.LVL65:
 771              		.loc 2 242 21 view .LVU239
 772              	.LPIC26:
 773 0236 7B44     		add	r3, pc
 774              		.loc 2 242 23 view .LVU240
 775 0238 67EE877A 		vmul.f32	s15, s15, s14
 776              		.loc 2 242 21 view .LVU241
 777 023c C3ED0B7A 		vstr.32	s15, [r3, #44]
 778              		.loc 2 243 7 is_stmt 1 view .LVU242
 779 0240 7047     		bx	lr
 780              	.LVL66:
 781              	.L42:
 782              		.loc 2 244 5 view .LVU243
 783              		.loc 2 245 7 view .LVU244
 784              		.loc 2 245 7 is_stmt 0 view .LVU245
 785              	.LBE173:
 786              	.LBE177:
 787              		.loc 4 78 3 is_stmt 1 view .LVU246
 788              	.LBB178:
 789              	.LBB174:
 790              		.loc 2 246 7 view .LVU247
 791              		.loc 2 246 24 is_stmt 0 view .LVU248
 792 0242 81F30A03 		usat	r3, #10, r1
 793              	.LVL67:
 794              		.loc 2 246 24 view .LVU249
 795 0246 9FED067A 		vldr.32	s14, .L47
 796 024a 07EE903A 		vmov	s15, r3	@ int
 797              		.loc 2 246 22 view .LVU250
 798 024e 084B     		ldr	r3, .L47+16
ARM GAS  /var/folders/d3/dt3vwhr97lb9k6xww43tf6h40000gr/T//cc93c3ZJ.s 			page 15


 799              	.LVL68:
 800              		.loc 2 246 24 view .LVU251
 801 0250 F8EEE77A 		vcvt.f32.s32	s15, s15
 802              	.LVL69:
 803              		.loc 2 246 22 view .LVU252
 804              	.LPIC27:
 805 0254 7B44     		add	r3, pc
 806              		.loc 2 246 24 view .LVU253
 807 0256 67EE877A 		vmul.f32	s15, s15, s14
 808              		.loc 2 246 22 view .LVU254
 809 025a C3ED0C7A 		vstr.32	s15, [r3, #48]
 810              		.loc 2 247 7 is_stmt 1 view .LVU255
 811              	.LVL70:
 812              	.L40:
 813              		.loc 2 247 7 is_stmt 0 view .LVU256
 814              	.LBE174:
 815              	.LBE178:
 816              		.loc 1 75 1 view .LVU257
 817 025e 7047     		bx	lr
 818              	.L48:
 819              		.align	2
 820              	.L47:
 821 0260 0820803A 		.word	981475336
 822 0264 66000000 		.word	.LANCHOR0-(.LPIC24+4)
 823 0268 4C000000 		.word	.LANCHOR0-(.LPIC25+4)
 824 026c 32000000 		.word	.LANCHOR0-(.LPIC26+4)
 825 0270 18000000 		.word	.LANCHOR0-(.LPIC27+4)
 826              		.cfi_endproc
 827              	.LFE881:
 828              		.size	unit_set_param_value, .-unit_set_param_value
 829              		.align	1
 830              		.global	unit_get_param_value
 831              		.syntax unified
 832              		.thumb
 833              		.thumb_func
 834              		.type	unit_get_param_value, %function
 835              	unit_get_param_value:
 836              	.LVL71:
 837              	.LFB882:
 838              		.loc 1 77 58 is_stmt 1 view -0
 839              		.cfi_startproc
 840              		@ args = 0, pretend = 0, frame = 0
 841              		@ frame_needed = 0, uses_anonymous_args = 0
 842              		@ link register save eliminated.
 843              		.loc 1 78 3 view .LVU259
 844              	.LBB211:
 845              	.LBI211:
 846              		.loc 2 253 18 view .LVU260
 847              	.LBB212:
 848              		.loc 2 254 5 view .LVU261
 849 0274 0328     		cmp	r0, #3
 850 0276 2ED8     		bhi	.L56
 851 0278 DFE800F0 		tbb	[pc, r0]
 852              	.L52:
 853 027c 02       		.byte	(.L55-.L52)/2
 854 027d 1E       		.byte	(.L54-.L52)/2
 855 027e 23       		.byte	(.L53-.L52)/2
ARM GAS  /var/folders/d3/dt3vwhr97lb9k6xww43tf6h40000gr/T//cc93c3ZJ.s 			page 16


 856 027f 28       		.byte	(.L51-.L52)/2
 857              		.p2align 1
 858              	.L55:
 859              	.LBB213:
 860              	.LBI213:
 861              		.loc 2 253 18 view .LVU262
 862              	.LVL72:
 863              	.LBB214:
 864              		.loc 2 255 5 view .LVU263
 865              		.loc 2 256 7 view .LVU264
 866              		.loc 2 256 14 is_stmt 0 view .LVU265
 867 0280 174B     		ldr	r3, .L58+4
 868              	.LPIC28:
 869 0282 7B44     		add	r3, pc
 870 0284 D3ED097A 		vldr.32	s15, [r3, #36]
 871              	.LVL73:
 872              	.L57:
 873              		.loc 2 256 14 view .LVU266
 874              	.LBE214:
 875              	.LBE213:
 876              		.loc 2 259 14 view .LVU267
 877 0288 9FED147A 		vldr.32	s14, .L58
 878 028c 67EE877A 		vmul.f32	s15, s15, s14
 879              	.LVL74:
 880              	.LBB215:
 881              	.LBI215:
 882              		.file 5 "/Users/omereliraz/Documents/logue-sdk/platform/nts-3_kaoss/common/utils/float_math.h"
 883              		.loc 5 310 7 is_stmt 1 view .LVU268
 884              	.LBB216:
 885              		.loc 5 312 3 view .LVU269
 886              	.LBB217:
 887              	.LBI217:
 888              		.loc 5 270 7 view .LVU270
 889              	.LBB218:
 890              		.loc 5 272 3 view .LVU271
 891              		.loc 5 273 3 view .LVU272
 892              		.loc 5 275 3 view .LVU273
 893              		.loc 5 276 3 view .LVU274
 894              		.loc 5 278 3 view .LVU275
 895              		.loc 5 276 16 is_stmt 0 view .LVU276
 896 0290 17EE903A 		vmov	r3, s15	@ int
 897 0294 03F00043 		and	r3, r3, #-2147483648
 898              		.loc 5 276 8 view .LVU277
 899 0298 43F07C53 		orr	r3, r3, #1056964608
 900              	.LBE218:
 901              	.LBE217:
 902              		.loc 5 312 30 view .LVU278
 903 029c 07EE103A 		vmov	s14, r3
 904 02a0 77EE877A 		vadd.f32	s15, s15, s14
 905              		.loc 5 312 18 view .LVU279
 906 02a4 FDEEE77A 		vcvt.s32.f32	s15, s15
 907              		.loc 5 312 53 view .LVU280
 908 02a8 F8EEE77A 		vcvt.f32.s32	s15, s15
 909              	.LBE216:
 910              	.LBE215:
 911              		.loc 2 259 14 view .LVU281
 912 02ac FCEEE77A 		vcvt.u32.f32	s15, s15
ARM GAS  /var/folders/d3/dt3vwhr97lb9k6xww43tf6h40000gr/T//cc93c3ZJ.s 			page 17


 913 02b0 17EE903A 		vmov	r3, s15	@ int
 914 02b4 98B2     		uxth	r0, r3
 915              	.LVL75:
 916              		.loc 2 259 14 view .LVU282
 917 02b6 7047     		bx	lr
 918              	.LVL76:
 919              	.L54:
 920              		.loc 2 257 7 is_stmt 1 view .LVU283
 921              		.loc 2 258 5 view .LVU284
 922              		.loc 2 259 7 view .LVU285
 923              		.loc 2 259 14 is_stmt 0 view .LVU286
 924 02b8 0A4B     		ldr	r3, .L58+8
 925              	.LPIC29:
 926 02ba 7B44     		add	r3, pc
 927 02bc D3ED0A7A 		vldr.32	s15, [r3, #40]
 928 02c0 E2E7     		b	.L57
 929              	.L53:
 930              		.loc 2 260 7 is_stmt 1 view .LVU287
 931              		.loc 2 261 5 view .LVU288
 932              		.loc 2 262 7 view .LVU289
 933              		.loc 2 262 14 is_stmt 0 view .LVU290
 934 02c2 094B     		ldr	r3, .L58+12
 935              	.LPIC30:
 936 02c4 7B44     		add	r3, pc
 937 02c6 D3ED0B7A 		vldr.32	s15, [r3, #44]
 938 02ca DDE7     		b	.L57
 939              	.L51:
 940              		.loc 2 263 7 is_stmt 1 view .LVU291
 941              		.loc 2 264 5 view .LVU292
 942              		.loc 2 265 7 view .LVU293
 943              		.loc 2 265 14 is_stmt 0 view .LVU294
 944 02cc 074B     		ldr	r3, .L58+16
 945              	.LPIC31:
 946 02ce 7B44     		add	r3, pc
 947 02d0 D3ED0C7A 		vldr.32	s15, [r3, #48]
 948 02d4 D8E7     		b	.L57
 949              	.L56:
 950              		.loc 2 254 5 view .LVU295
 951 02d6 4FF00040 		mov	r0, #-2147483648
 952              	.LVL77:
 953              		.loc 2 254 5 view .LVU296
 954              	.LBE212:
 955              	.LBE211:
 956              		.loc 1 79 1 view .LVU297
 957 02da 7047     		bx	lr
 958              	.L59:
 959              		.align	2
 960              	.L58:
 961 02dc 00C07F44 		.word	1149222912
 962 02e0 5A000000 		.word	.LANCHOR0-(.LPIC28+4)
 963 02e4 26000000 		.word	.LANCHOR0-(.LPIC29+4)
 964 02e8 20000000 		.word	.LANCHOR0-(.LPIC30+4)
 965 02ec 1A000000 		.word	.LANCHOR0-(.LPIC31+4)
 966              		.cfi_endproc
 967              	.LFE882:
 968              		.size	unit_get_param_value, .-unit_get_param_value
 969              		.align	1
ARM GAS  /var/folders/d3/dt3vwhr97lb9k6xww43tf6h40000gr/T//cc93c3ZJ.s 			page 18


 970              		.global	unit_get_param_str_value
 971              		.syntax unified
 972              		.thumb
 973              		.thumb_func
 974              		.type	unit_get_param_str_value, %function
 975              	unit_get_param_str_value:
 976              	.LVL78:
 977              	.LFB883:
 978              		.loc 1 81 82 is_stmt 1 view -0
 979              		.cfi_startproc
 980              		@ args = 0, pretend = 0, frame = 0
 981              		@ frame_needed = 0, uses_anonymous_args = 0
 982              		@ link register save eliminated.
 983              		.loc 1 82 3 view .LVU299
 984              		.loc 2 278 5 view .LVU300
 985              		.loc 1 83 1 is_stmt 0 view .LVU301
 986 02f0 0020     		movs	r0, #0
 987              	.LVL79:
 988              		.loc 1 83 1 view .LVU302
 989 02f2 7047     		bx	lr
 990              		.cfi_endproc
 991              	.LFE883:
 992              		.size	unit_get_param_str_value, .-unit_get_param_str_value
 993              		.align	1
 994              		.global	unit_set_tempo
 995              		.syntax unified
 996              		.thumb
 997              		.thumb_func
 998              		.type	unit_set_tempo, %function
 999              	unit_set_tempo:
 1000              	.LVL80:
 1001              	.LFB884:
 1002              		.loc 1 85 53 is_stmt 1 view -0
 1003              		.cfi_startproc
 1004              		@ args = 0, pretend = 0, frame = 0
 1005              		@ frame_needed = 0, uses_anonymous_args = 0
 1006              		@ link register save eliminated.
 1007              		.loc 1 86 3 view .LVU304
 1008              		.loc 2 283 5 view .LVU305
 1009              		.loc 1 87 1 is_stmt 0 view .LVU306
 1010 02f4 7047     		bx	lr
 1011              		.cfi_endproc
 1012              	.LFE884:
 1013              		.size	unit_set_tempo, .-unit_set_tempo
 1014              		.align	1
 1015              		.global	unit_tempo_4ppqn_tick
 1016              		.syntax unified
 1017              		.thumb
 1018              		.thumb_func
 1019              		.type	unit_tempo_4ppqn_tick, %function
 1020              	unit_tempo_4ppqn_tick:
 1021              	.LFB914:
 1022              		.cfi_startproc
 1023              		@ args = 0, pretend = 0, frame = 0
 1024              		@ frame_needed = 0, uses_anonymous_args = 0
 1025              		@ link register save eliminated.
 1026 02f6 7047     		bx	lr
ARM GAS  /var/folders/d3/dt3vwhr97lb9k6xww43tf6h40000gr/T//cc93c3ZJ.s 			page 19


 1027              		.cfi_endproc
 1028              	.LFE914:
 1029              		.size	unit_tempo_4ppqn_tick, .-unit_tempo_4ppqn_tick
 1030              		.align	1
 1031              		.global	unit_touch_event
 1032              		.syntax unified
 1033              		.thumb
 1034              		.thumb_func
 1035              		.type	unit_touch_event, %function
 1036              	unit_touch_event:
 1037              	.LVL81:
 1038              	.LFB886:
 1039              		.loc 1 93 90 is_stmt 1 view -0
 1040              		.cfi_startproc
 1041              		@ args = 0, pretend = 0, frame = 0
 1042              		@ frame_needed = 0, uses_anonymous_args = 0
 1043              		@ link register save eliminated.
 1044              		.loc 1 94 3 view .LVU308
 1045              		.loc 2 291 5 view .LVU309
 1046              		.loc 2 292 5 view .LVU310
 1047              		.loc 2 293 5 view .LVU311
 1048              		.loc 2 294 5 view .LVU312
 1049              		.loc 1 95 1 is_stmt 0 view .LVU313
 1050 02f8 7047     		bx	lr
 1051              		.cfi_endproc
 1052              	.LFE886:
 1053              		.size	unit_touch_event, .-unit_touch_event
 1054              		.section	.text.startup,"ax",%progbits
 1055              		.align	1
 1056              		.syntax unified
 1057              		.thumb
 1058              		.thumb_func
 1059              		.type	_GLOBAL__sub_I_unit.cc, %function
 1060              	_GLOBAL__sub_I_unit.cc:
 1061              	.LFB906:
 1062              		.loc 1 95 1 is_stmt 1 view -0
 1063              		.cfi_startproc
 1064              		@ args = 0, pretend = 0, frame = 0
 1065              		@ frame_needed = 0, uses_anonymous_args = 0
 1066              	.LVL82:
 1067              	.LBB232:
 1068              	.LBI232:
 1069              		.loc 1 95 1 view .LVU315
 1070              	.LBB233:
 1071              	.LBI233:
 1072              		.loc 1 95 1 view .LVU316
 1073              	.LBB234:
 1074              	.LBB235:
 1075              	.LBI235:
 1076              		.loc 2 100 3 view .LVU317
 1077              	.LBB236:
 1078              	.LBB237:
 1079              	.LBB238:
 1080              	.LBI238:
 1081              		.loc 2 80 10 view .LVU318
 1082              	.LBE238:
 1083              	.LBE237:
ARM GAS  /var/folders/d3/dt3vwhr97lb9k6xww43tf6h40000gr/T//cc93c3ZJ.s 			page 20


 1084              	.LBE236:
 1085              	.LBE235:
 1086              	.LBE234:
 1087              	.LBE233:
 1088              	.LBE232:
 1089              		.loc 1 95 1 is_stmt 0 view .LVU319
 1090 0000 70B5     		push	{r4, r5, r6, lr}
 1091              		.cfi_def_cfa_offset 16
 1092              		.cfi_offset 4, -16
 1093              		.cfi_offset 5, -12
 1094              		.cfi_offset 6, -8
 1095              		.cfi_offset 14, -4
 1096              	.LBB252:
 1097              	.LBB251:
 1098              	.LBB250:
 1099              	.LBB249:
 1100              	.LBB248:
 1101              	.LBB247:
 1102              	.LBB243:
 1103              	.LBB239:
 1104              		.loc 2 80 10 view .LVU320
 1105 0002 224C     		ldr	r4, .L65+16
 1106 0004 0023     		movs	r3, #0
 1107              	.LBE239:
 1108              	.LBE243:
 1109              		.loc 2 100 16 view .LVU321
 1110 0006 0022     		movs	r2, #0
 1111 0008 214D     		ldr	r5, .L65+20
 1112              	.LBB244:
 1113              	.LBB240:
 1114              		.loc 2 80 10 view .LVU322
 1115              	.LPIC32:
 1116 000a 7C44     		add	r4, pc
 1117              	.LBE240:
 1118              	.LBE244:
 1119              		.loc 2 100 16 view .LVU323
 1120              	.LPIC50:
 1121 000c 7D44     		add	r5, pc
 1122              	.LBB245:
 1123              	.LBB241:
 1124              		.loc 2 80 10 view .LVU324
 1125 000e 6362     		str	r3, [r4, #36]	@ float
 1126              	.LBE241:
 1127              	.LBE245:
 1128              		.loc 2 100 16 view .LVU325
 1129 0010 04F1B006 		add	r6, r4, #176
 1130              	.LBB246:
 1131              	.LBB242:
 1132              		.loc 2 80 10 view .LVU326
 1133 0014 A362     		str	r3, [r4, #40]	@ float
 1134 0016 E362     		str	r3, [r4, #44]	@ float
 1135 0018 2363     		str	r3, [r4, #48]	@ float
 1136              	.LVL83:
 1137              		.loc 2 80 10 view .LVU327
 1138              	.LBE242:
 1139              	.LBE246:
 1140              		.loc 2 100 16 view .LVU328
ARM GAS  /var/folders/d3/dt3vwhr97lb9k6xww43tf6h40000gr/T//cc93c3ZJ.s 			page 21


 1141 001a 2366     		str	r3, [r4, #96]	@ float
 1142 001c 6366     		str	r3, [r4, #100]	@ float
 1143 001e 174B     		ldr	r3, .L65
 1144 0020 6265     		str	r2, [r4, #84]
 1145 0022 C4F8A030 		str	r3, [r4, #160]	@ float
 1146 0026 164B     		ldr	r3, .L65+4
 1147 0028 C4F8A430 		str	r3, [r4, #164]	@ float
 1148 002c 154B     		ldr	r3, .L65+8
 1149 002e C4E91322 		strd	r2, r2, [r4, #76]
 1150 0032 C4F8A830 		str	r3, [r4, #168]	@ float
 1151 0036 4FF07E52 		mov	r2, #1065353216
 1152 003a 134B     		ldr	r3, .L65+12
 1153 003c A265     		str	r2, [r4, #88]	@ float
 1154 003e E265     		str	r2, [r4, #92]	@ float
 1155 0040 A266     		str	r2, [r4, #104]	@ float
 1156 0042 E266     		str	r2, [r4, #108]	@ float
 1157 0044 C4F8AC30 		str	r3, [r4, #172]	@ float
 1158 0048 95E80F00 		ldm	r5, {r0, r1, r2, r3}
 1159 004c 86E80F00 		stm	r6, {r0, r1, r2, r3}
 1160 0050 05F11003 		add	r3, r5, #16
 1161 0054 04F1C006 		add	r6, r4, #192
 1162 0058 0FCB     		ldm	r3, {r0, r1, r2, r3}
 1163 005a 86E80F00 		stm	r6, {r0, r1, r2, r3}
 1164 005e 05F12003 		add	r3, r5, #32
 1165 0062 04F1D006 		add	r6, r4, #208
 1166 0066 3035     		adds	r5, r5, #48
 1167 0068 E034     		adds	r4, r4, #224
 1168 006a 0FCB     		ldm	r3, {r0, r1, r2, r3}
 1169 006c 86E80F00 		stm	r6, {r0, r1, r2, r3}
 1170 0070 95E80F00 		ldm	r5, {r0, r1, r2, r3}
 1171 0074 84E80F00 		stm	r4, {r0, r1, r2, r3}
 1172              	.LVL84:
 1173              		.loc 2 100 16 view .LVU329
 1174              	.LBE247:
 1175              	.LBE248:
 1176              	.LBE249:
 1177              	.LBE250:
 1178              	.LBE251:
 1179              	.LBE252:
 1180              		.loc 1 95 1 view .LVU330
 1181 0078 70BD     		pop	{r4, r5, r6, pc}
 1182              	.L66:
 1183 007a 00BF     		.align	2
 1184              	.L65:
 1185 007c 8988083B 		.word	990414985
 1186 0080 FAED7F3F 		.word	1065348602
 1187 0084 9A99993D 		.word	1033476506
 1188 0088 82A8FB37 		.word	939239554
 1189 008c 7E000000 		.word	.LANCHOR0-(.LPIC32+4)
 1190 0090 80000000 		.word	.LANCHOR1-(.LPIC50+4)
 1191              		.cfi_endproc
 1192              	.LFE906:
 1193              		.size	_GLOBAL__sub_I_unit.cc, .-_GLOBAL__sub_I_unit.cc
 1194              		.section	.init_array,"aw",%init_array
 1195              		.align	2
 1196 0000 00000000 		.word	_GLOBAL__sub_I_unit.cc(target1)
 1197              		.section	.rodata
ARM GAS  /var/folders/d3/dt3vwhr97lb9k6xww43tf6h40000gr/T//cc93c3ZJ.s 			page 22


 1198              		.align	2
 1199              		.set	.LANCHOR1,. + 0
 1200              	.LC0:
 1201 0000 70050000 		.word	1392
 1202 0004 300A0000 		.word	2608
 1203 0008 40070000 		.word	1856
 1204 000c 70040000 		.word	1136
 1205              	.LC1:
 1206 0010 A01B0000 		.word	7072
 1207 0014 E0190000 		.word	6624
 1208 0018 40170000 		.word	5952
 1209 001c 90150000 		.word	5520
 1210              	.LC2:
 1211 0020 E00A0000 		.word	2784
 1212 0024 500A0000 		.word	2640
 1213 0028 80070000 		.word	1920
 1214 002c B0040000 		.word	1200
 1215              	.LC3:
 1216 0030 100E0000 		.word	3600
 1217 0034 90060000 		.word	1680
 1218 0038 A0050000 		.word	1440
 1219 003c E0020000 		.word	736
 1220              		.bss
 1221              		.align	2
 1222              		.set	.LANCHOR0,. + 0
 1223              		.type	_ZL17s_effect_instance, %object
 1224              		.size	_ZL17s_effect_instance, 240
 1225              	_ZL17s_effect_instance:
 1226 0000 00000000 		.space	240
 1226      00000000 
 1226      00000000 
 1226      00000000 
 1226      00000000 
 1227              		.text
 1228              	.Letext0:
 1229              		.file 6 "/Users/omereliraz/Documents/logue-sdk/tools/gcc/gcc-arm-none-eabi-10.3-2021.10/arm-none-e
 1230              		.file 7 "/Users/omereliraz/Documents/logue-sdk/tools/gcc/gcc-arm-none-eabi-10.3-2021.10/arm-none-e
 1231              		.file 8 "/Users/omereliraz/Documents/logue-sdk/tools/gcc/gcc-arm-none-eabi-10.3-2021.10/arm-none-e
 1232              		.file 9 "/Users/omereliraz/Documents/logue-sdk/tools/gcc/gcc-arm-none-eabi-10.3-2021.10/arm-none-e
 1233              		.file 10 "/Users/omereliraz/Documents/logue-sdk/tools/gcc/gcc-arm-none-eabi-10.3-2021.10/arm-none-
 1234              		.file 11 "/Users/omereliraz/Documents/logue-sdk/tools/gcc/gcc-arm-none-eabi-10.3-2021.10/arm-none-
 1235              		.file 12 "/Users/omereliraz/Documents/logue-sdk/tools/gcc/gcc-arm-none-eabi-10.3-2021.10/arm-none-
 1236              		.file 13 "/Users/omereliraz/Documents/logue-sdk/tools/gcc/gcc-arm-none-eabi-10.3-2021.10/arm-none-
 1237              		.file 14 "/Users/omereliraz/Documents/logue-sdk/tools/gcc/gcc-arm-none-eabi-10.3-2021.10/arm-none-
 1238              		.file 15 "/Users/omereliraz/Documents/logue-sdk/tools/gcc/gcc-arm-none-eabi-10.3-2021.10/arm-none-
 1239              		.file 16 "/Users/omereliraz/Documents/logue-sdk/tools/gcc/gcc-arm-none-eabi-10.3-2021.10/lib/gcc/a
 1240              		.file 17 "/Users/omereliraz/Documents/logue-sdk/tools/gcc/gcc-arm-none-eabi-10.3-2021.10/arm-none-
 1241              		.file 18 "/Users/omereliraz/Documents/logue-sdk/tools/gcc/gcc-arm-none-eabi-10.3-2021.10/arm-none-
 1242              		.file 19 "/Users/omereliraz/Documents/logue-sdk/platform/nts-3_kaoss/common/runtime.h"
 1243              		.file 20 "/Users/omereliraz/Documents/logue-sdk/platform/nts-3_kaoss/common/unit_genericfx.h"
 1244              		.file 21 "<built-in>"
 1245              		.file 22 "/Users/omereliraz/Documents/logue-sdk/tools/gcc/gcc-arm-none-eabi-10.3-2021.10/arm-none-
 1246              		.file 23 "/Users/omereliraz/Documents/logue-sdk/platform/nts-3_kaoss/common/dsp/biquad.hpp"